(dp0
S'TFloatFloatList'
p1
(ipyprops
ClassDefinition
p2
(dp3
S'extended'
p4
I0
sS'imported'
p5
I0
sS'name'
p6
g1
sS'parent'
p7
S'TOrange'
p8
sS'abstract'
p9
I0
sS'components'
p10
(lp11
sS'properties'
p12
(lp13
sS'constants'
p14
(dp15
sbsS'TValueFilterList'
p16
(ipyprops
ClassDefinition
p17
(dp18
g4
I0
sg5
I0
sg6
g16
sg7
g8
sg9
I0
sg10
(lp19
sg12
(lp20
sg14
(dp21
sbsS'TC45TreeNodeList'
p22
(ipyprops
ClassDefinition
p23
(dp24
g4
I0
sg5
I0
sg6
g22
sg7
g8
sg9
I0
sg10
(lp25
sg12
(lp26
sg14
(dp27
sbsS'TDomainContingency'
p28
(ipyprops
ClassDefinition
p29
(dp30
g4
I0
sg5
I0
sg6
g28
sg7
g8
sg9
I0
sg10
(lp31
sg12
(lp32
sg14
(dp33
sbsS'THeatmapList'
p34
(ipyprops
ClassDefinition
p35
(dp36
g4
I0
sg5
I0
sg6
g34
sg7
g8
sg9
I0
sg10
(lp37
sg12
(lp38
sg14
(dp39
sbsS'TBoolList'
p40
(ipyprops
ClassDefinition
p41
(dp42
g4
I0
sg5
I0
sg6
g40
sg7
g8
sg9
I0
sg10
(lp43
sg12
(lp44
sg14
(dp45
sbsS'TDomainBasicAttrStat'
p46
(ipyprops
ClassDefinition
p47
(dp48
g4
I0
sg5
I0
sg6
g46
sg7
g8
sg9
I0
sg10
(lp49
sg12
(lp50
sg14
(dp51
sbsS'TSOMNodeList'
p52
(ipyprops
ClassDefinition
p53
(dp54
g4
I0
sg5
I0
sg6
g52
sg7
g8
sg9
I0
sg10
(lp55
sg12
(lp56
sg14
(dp57
sbsS'TTreeNodeList'
p58
(ipyprops
ClassDefinition
p59
(dp60
g4
I0
sg5
I0
sg6
g58
sg7
g8
sg9
I0
sg10
(lp61
sg12
(lp62
sg14
(dp63
sbsNNsS'TIntList'
p64
(ipyprops
ClassDefinition
p65
(dp66
g4
I0
sg5
I0
sg6
g64
sg7
g8
sg9
I0
sg10
(lp67
sg12
(lp68
sg14
(dp69
sbsS'TFloatList'
p70
(ipyprops
ClassDefinition
p71
(dp72
g4
I0
sg5
I0
sg6
g70
sg7
g8
sg9
I0
sg10
(lp73
sg12
(lp74
sg14
(dp75
sbsS'TIntFloatList'
p76
(ipyprops
ClassDefinition
p77
(dp78
g4
I0
sg5
I0
sg6
g76
sg7
g8
sg9
I0
sg10
(lp79
sg12
(lp80
sg14
(dp81
sbsS'TStringList'
p82
(ipyprops
ClassDefinition
p83
(dp84
g4
I0
sg5
I0
sg6
g82
sg7
g8
sg9
I0
sg10
(lp85
sg12
(lp86
sg14
(dp87
sbsS'TLongList'
p88
(ipyprops
ClassDefinition
p89
(dp90
g4
I0
sg5
I0
sg6
g88
sg7
g8
sg9
I0
sg10
(lp91
sg12
(lp92
sg14
(dp93
sbsS'TEVDistList'
p94
(ipyprops
ClassDefinition
p95
(dp96
g4
I0
sg5
I0
sg6
g94
sg7
g8
sg9
I0
sg10
(lp97
sg12
(lp98
sg14
(dp99
sbsS'TAlignmentList'
p100
(ipyprops
ClassDefinition
p101
(dp102
g4
I0
sg5
I0
sg6
g100
sg7
g8
sg9
I0
sg10
(lp103
sg12
(lp104
sg14
(dp105
sbsS'TAttributedBoolList'
p106
(ipyprops
ClassDefinition
p107
(dp108
g4
I0
sg5
I0
sg6
g106
sg7
g40
sg9
I0
sg10
(lp109
sg12
(lp110
sg14
(dp111
sbsS'THierarchicalClusterList'
p112
(ipyprops
ClassDefinition
p113
(dp114
g4
I0
sg5
I0
sg6
g112
sg7
g8
sg9
I0
sg10
(lp115
sg12
(lp116
sg14
(dp117
sbsS'TVarListList'
p118
(ipyprops
ClassDefinition
p119
(dp120
g4
I0
sg5
I0
sg6
g118
sg7
g8
sg9
I0
sg10
(lp121
sg12
(lp122
sg14
(dp123
sbsS'TFilterList'
p124
(ipyprops
ClassDefinition
p125
(dp126
g4
I0
sg5
I0
sg6
g124
sg7
g8
sg9
I0
sg10
(lp127
sg12
(lp128
sg14
(dp129
sbsS'TClassifierList'
p130
(ipyprops
ClassDefinition
p131
(dp132
g4
I0
sg5
I0
sg6
g130
sg7
g8
sg9
I0
sg10
(lp133
sg12
(lp134
sg14
(dp135
sbsS'TFilter_index'
p136
(ipyprops
ClassDefinition
p137
(dp138
g4
I0
sg5
I0
sg6
g136
sg7
g8
sg9
I0
sg10
(lp139
sg12
(lp140
sg14
(dp141
sbsS'TDistributionList'
p142
(ipyprops
ClassDefinition
p143
(dp144
g4
I0
sg5
I0
sg6
g142
sg7
g8
sg9
I0
sg10
(lp145
sg12
(lp146
sg14
(dp147
sbsS'TRuleList'
p148
(ipyprops
ClassDefinition
p149
(dp150
g4
I0
sg5
I0
sg6
g148
sg7
g8
sg9
I0
sg10
(lp151
sg12
(lp152
sg14
(dp153
sbsS'TExampleGeneratorList'
p154
(ipyprops
ClassDefinition
p155
(dp156
g4
I0
sg5
I0
sg6
g154
sg7
g8
sg9
I0
sg10
(lp157
sg12
(lp158
sg14
(dp159
sbsS'TVarList'
p160
(ipyprops
ClassDefinition
p161
(dp162
g4
I0
sg5
I0
sg6
g160
sg7
g8
sg9
I0
sg10
(lp163
sg12
(lp164
sg14
(dp165
sbsS'TProbabilityEstimatorList'
p166
(ipyprops
ClassDefinition
p167
(dp168
g4
I0
sg5
I0
sg6
g166
sg7
g8
sg9
I0
sg10
(lp169
sg12
(lp170
sg14
(dp171
sbsS'TValueList'
p172
(ipyprops
ClassDefinition
p173
(dp174
g4
I0
sg5
I0
sg6
g172
sg7
g8
sg9
I0
sg10
(lp175
sg12
(lp176
sg14
(dp177
sbsS'TConditionalProbabilityEstimatorList'
p178
(ipyprops
ClassDefinition
p179
(dp180
g4
I0
sg5
I0
sg6
g178
sg7
g8
sg9
I0
sg10
(lp181
sg12
(lp182
sg14
(dp183
sbsS'TAttributedFloatList'
p184
(ipyprops
ClassDefinition
p185
(dp186
g4
I0
sg5
I0
sg6
g184
sg7
g70
sg9
I0
sg10
(lp187
sg12
(lp188
sg14
(dp189
sbsS'TAssociationRules'
p190
(ipyprops
ClassDefinition
p191
(dp192
g4
I0
sg5
I0
sg6
g190
sg7
g8
sg9
I0
sg10
(lp193
sg12
(lp194
sg14
(dp195
sbsS'TFloatListList'
p196
(ipyprops
ClassDefinition
p197
(dp198
g4
I0
sg5
I0
sg6
g196
sg7
g8
sg9
I0
sg10
(lp199
sg12
(lp200
sg14
(dp201
sbsS'TDomainDistributions'
p202
(ipyprops
ClassDefinition
p203
(dp204
g4
I0
sg5
I0
sg6
g202
sg7
g8
sg9
I0
sg10
(lp205
sg12
(lp206
sg14
(dp207
sbs.